; Function Attrs: mustprogress uwtable
define hidden noundef zeroext i1 @_ZNK3nla9intervals12conflict_u_lERKN13dep_intervals9im_config8intervalES5_(ptr noundef nonnull align 8 dereferenceable(1432) %this, ptr noundef nonnull align 8 dereferenceable(88) %a, ptr noundef nonnull align 8 dereferenceable(88) %b) local_unnamed_addr #3 align 2 {
entry:
  %m_upper_inf = getelementptr inbounds i8, ptr %a, i64 64
  %bf.load = load i8, ptr %m_upper_inf, align 8
  %0 = and i8 %bf.load, 8
  %tobool.not = icmp eq i8 %0, 0
  br i1 %tobool.not, label %if.end, label %return

if.end:                                           ; preds = %entry
  %m_lower_inf = getelementptr inbounds i8, ptr %b, i64 64
  %bf.load2 = load i8, ptr %m_lower_inf, align 8
  %1 = and i8 %bf.load2, 4
  %tobool6.not = icmp eq i8 %1, 0
  br i1 %tobool6.not, label %if.end8, label %return

if.end8:                                          ; preds = %if.end
  %m_num_manager.i = getelementptr inbounds i8, ptr %this, i64 8
  %m_upper = getelementptr inbounds i8, ptr %a, i64 32
  %m_den.i.i = getelementptr inbounds i8, ptr %a, i64 48
  %m_kind.i.i.i.i.i = getelementptr inbounds i8, ptr %a, i64 52
  %bf.load.i.i.i.i.i = load i8, ptr %m_kind.i.i.i.i.i, align 4
  %bf.clear.i.i.i.i.i = and i8 %bf.load.i.i.i.i.i, 1
  %cmp.i.i.i.i.i = icmp eq i8 %bf.clear.i.i.i.i.i, 0
  %2 = load i32, ptr %m_den.i.i, align 8
  %cmp.i.i.i.i = icmp eq i32 %2, 1
  %3 = select i1 %cmp.i.i.i.i.i, i1 %cmp.i.i.i.i, i1 false
  br i1 %3, label %land.lhs.true.i, label %if.else.i

land.lhs.true.i:                                  ; preds = %if.end8
  %m_den.i5.i = getelementptr inbounds i8, ptr %b, i64 16
  %m_kind.i.i.i.i6.i = getelementptr inbounds i8, ptr %b, i64 20
  %bf.load.i.i.i.i7.i = load i8, ptr %m_kind.i.i.i.i6.i, align 4
  %bf.clear.i.i.i.i8.i = and i8 %bf.load.i.i.i.i7.i, 1
  %cmp.i.i.i.i9.i = icmp eq i8 %bf.clear.i.i.i.i8.i, 0
  %4 = load i32, ptr %m_den.i5.i, align 8
  %cmp.i.i.i10.i = icmp eq i32 %4, 1
  %5 = select i1 %cmp.i.i.i.i9.i, i1 %cmp.i.i.i10.i, i1 false
  br i1 %5, label %if.then.i, label %if.else.i

if.then.i:                                        ; preds = %land.lhs.true.i
  %m_kind.i.i.i.i = getelementptr inbounds i8, ptr %a, i64 36
  %bf.load.i.i.i.i = load i8, ptr %m_kind.i.i.i.i, align 4
  %bf.clear.i.i.i.i = and i8 %bf.load.i.i.i.i, 1
  %cmp.i.i.i11.i = icmp eq i8 %bf.clear.i.i.i.i, 0
  br i1 %cmp.i.i.i11.i, label %land.lhs.true.i.i.i, label %_ZN11mpq_managerILb0EE2ltERK3mpqS3_.exit

land.lhs.true.i.i.i:                              ; preds = %if.then.i
  %m_kind.i5.i.i.i = getelementptr inbounds i8, ptr %b, i64 4
  %bf.load.i6.i.i.i = load i8, ptr %m_kind.i5.i.i.i, align 4
  %bf.clear.i7.i.i.i = and i8 %bf.load.i6.i.i.i, 1
  %cmp.i8.i.i.i = icmp eq i8 %bf.clear.i7.i.i.i, 0
  br i1 %cmp.i8.i.i.i, label %if.then.i.i.i, label %_ZN11mpq_managerILb0EE2ltERK3mpqS3_.exit

if.then.i.i.i:                                    ; preds = %land.lhs.true.i.i.i
  %6 = load i32, ptr %m_upper, align 8
  %7 = load i32, ptr %b, align 8
  %cmp.i.i.i = icmp slt i32 %6, %7
  br i1 %cmp.i.i.i, label %return, label %if.end11

if.else.i:                                        ; preds = %land.lhs.true.i, %if.end8
  %call5.i = tail call noundef zeroext i1 @_ZN11mpq_managerILb0EE6rat_ltERK3mpqS3_(ptr noundef nonnull align 8 dereferenceable(728) %m_num_manager.i, ptr noundef nonnull align 8 dereferenceable(32) %m_upper, ptr noundef nonnull align 8 dereferenceable(32) %b)
  br i1 %call5.i, label %return, label %if.end11

_ZN11mpq_managerILb0EE2ltERK3mpqS3_.exit:         ; preds = %if.then.i, %land.lhs.true.i.i.i
  %call4.i.i.i = tail call noundef i32 @_ZN11mpz_managerILb0EE11big_compareERK3mpzS3_(ptr noundef nonnull align 8 dereferenceable(600) %m_num_manager.i, ptr noundef nonnull align 8 dereferenceable(16) %m_upper, ptr noundef nonnull align 8 dereferenceable(16) %b)
  %cmp5.i.i.i = icmp slt i32 %call4.i.i.i, 0
  br i1 %cmp5.i.i.i, label %return, label %if.end11

if.end11:                                         ; preds = %if.then.i.i.i, %if.else.i, %_ZN11mpq_managerILb0EE2ltERK3mpqS3_.exit
  %m_den.i.i.i = getelementptr inbounds i8, ptr %b, i64 16
  %m_kind.i.i.i.i.i.i = getelementptr inbounds i8, ptr %b, i64 20
  %bf.load.i.i.i.i.i.i = load i8, ptr %m_kind.i.i.i.i.i.i, align 4
  %bf.clear.i.i.i.i.i.i = and i8 %bf.load.i.i.i.i.i.i, 1
  %cmp.i.i.i.i.i.i = icmp eq i8 %bf.clear.i.i.i.i.i.i, 0
  %8 = load i32, ptr %m_den.i.i.i, align 8
  %cmp.i.i.i.i.i8 = icmp eq i32 %8, 1
  %9 = select i1 %cmp.i.i.i.i.i.i, i1 %cmp.i.i.i.i.i8, i1 false
  br i1 %9, label %land.lhs.true.i.i, label %if.else.i.i

land.lhs.true.i.i:                                ; preds = %if.end11
  %bf.load.i.i.i.i7.i.i = load i8, ptr %m_kind.i.i.i.i.i, align 4
  %bf.clear.i.i.i.i8.i.i = and i8 %bf.load.i.i.i.i7.i.i, 1
  %cmp.i.i.i.i9.i.i = icmp eq i8 %bf.clear.i.i.i.i8.i.i, 0
  %10 = load i32, ptr %m_den.i.i, align 8
  %cmp.i.i.i10.i.i = icmp eq i32 %10, 1
  %11 = select i1 %cmp.i.i.i.i9.i.i, i1 %cmp.i.i.i10.i.i, i1 false
  br i1 %11, label %if.then.i.i, label %if.else.i.i

if.then.i.i:                                      ; preds = %land.lhs.true.i.i
  %m_kind.i.i.i.i.i9 = getelementptr inbounds i8, ptr %b, i64 4
  %bf.load.i.i.i.i.i10 = load i8, ptr %m_kind.i.i.i.i.i9, align 4
  %bf.clear.i.i.i.i.i11 = and i8 %bf.load.i.i.i.i.i10, 1
  %cmp.i.i.i11.i.i = icmp eq i8 %bf.clear.i.i.i.i.i11, 0
  br i1 %cmp.i.i.i11.i.i, label %land.lhs.true.i.i.i.i, label %_ZN11mpq_managerILb0EE2gtERK3mpqS3_.exit

land.lhs.true.i.i.i.i:                            ; preds = %if.then.i.i
  %m_kind.i5.i.i.i.i = getelementptr inbounds i8, ptr %a, i64 36
  %bf.load.i6.i.i.i.i = load i8, ptr %m_kind.i5.i.i.i.i, align 4
  %bf.clear.i7.i.i.i.i = and i8 %bf.load.i6.i.i.i.i, 1
  %cmp.i8.i.i.i.i = icmp eq i8 %bf.clear.i7.i.i.i.i, 0
  br i1 %cmp.i8.i.i.i.i, label %if.then.i.i.i.i, label %_ZN11mpq_managerILb0EE2gtERK3mpqS3_.exit

if.then.i.i.i.i:                                  ; preds = %land.lhs.true.i.i.i.i
  %12 = load i32, ptr %b, align 8
  %13 = load i32, ptr %m_upper, align 8
  %cmp.i.i.i.i12 = icmp slt i32 %12, %13
  br i1 %cmp.i.i.i.i12, label %return, label %if.end18

if.else.i.i:                                      ; preds = %land.lhs.true.i.i, %if.end11
  %call5.i.i = tail call noundef zeroext i1 @_ZN11mpq_managerILb0EE6rat_ltERK3mpqS3_(ptr noundef nonnull align 8 dereferenceable(728) %m_num_manager.i, ptr noundef nonnull align 8 dereferenceable(32) %b, ptr noundef nonnull align 8 dereferenceable(32) %m_upper)
  br i1 %call5.i.i, label %return, label %if.end18

_ZN11mpq_managerILb0EE2gtERK3mpqS3_.exit:         ; preds = %if.then.i.i, %land.lhs.true.i.i.i.i
  %call4.i.i.i.i = tail call noundef i32 @_ZN11mpz_managerILb0EE11big_compareERK3mpzS3_(ptr noundef nonnull align 8 dereferenceable(600) %m_num_manager.i, ptr noundef nonnull align 8 dereferenceable(16) %b, ptr noundef nonnull align 8 dereferenceable(16) %m_upper)
  %cmp5.i.i.i.i = icmp slt i32 %call4.i.i.i.i, 0
  br i1 %cmp5.i.i.i.i, label %return, label %if.end18

if.end18:                                         ; preds = %if.then.i.i.i.i, %if.else.i.i, %_ZN11mpq_managerILb0EE2gtERK3mpqS3_.exit
  %bf.load19 = load i8, ptr %m_upper_inf, align 8
  %14 = and i8 %bf.load19, 2
  %tobool23.not = icmp ne i8 %14, 0
  %bf.load25 = load i8, ptr %m_lower_inf, align 8
  %15 = and i8 %bf.load25, 2
  %tobool29 = icmp ne i8 %15, 0
  %16 = select i1 %tobool23.not, i1 true, i1 %tobool29
  br label %return

return:                                           ; preds = %if.then.i.i.i.i, %if.else.i.i, %if.then.i.i.i, %if.else.i, %_ZN11mpq_managerILb0EE2gtERK3mpqS3_.exit, %_ZN11mpq_managerILb0EE2ltERK3mpqS3_.exit, %if.end, %entry, %if.end18
  %retval.0 = phi i1 [ %16, %if.end18 ], [ false, %entry ], [ false, %if.end ], [ true, %_ZN11mpq_managerILb0EE2ltERK3mpqS3_.exit ], [ false, %_ZN11mpq_managerILb0EE2gtERK3mpqS3_.exit ], [ true, %if.else.i ], [ true, %if.then.i.i.i ], [ false, %if.else.i.i ], [ false, %if.then.i.i.i.i ]
  ret i1 %retval.0
}